; ModuleID = 'source-C-CXX/46/2094.cpp'
source_filename = "source-C-CXX/46/2094.cpp"
target datalayout = "e-m:e-p270:32:32-p271:32:32-p272:64:64-i64:64-f80:128-n8:16:32:64-S128"
target triple = "x86_64-pc-linux-gnu"

%"class.std::ios_base::Init" = type { i8 }
%"class.std::basic_istream" = type { i32 (...)**, i64, %"class.std::basic_ios" }
%"class.std::basic_ios" = type { %"class.std::ios_base", %"class.std::basic_ostream"*, i8, i8, %"class.std::basic_streambuf"*, %"class.std::ctype"*, %"class.std::num_put"*, %"class.std::num_get"* }
%"class.std::ios_base" = type { i32 (...)**, i64, i64, i32, i32, i32, %"struct.std::ios_base::_Callback_list"*, %"struct.std::ios_base::_Words", [8 x %"struct.std::ios_base::_Words"], i32, %"struct.std::ios_base::_Words"*, %"class.std::locale" }
%"struct.std::ios_base::_Callback_list" = type { %"struct.std::ios_base::_Callback_list"*, void (i32, %"class.std::ios_base"*, i32)*, i32, i32 }
%"struct.std::ios_base::_Words" = type { i8*, i64 }
%"class.std::locale" = type { %"class.std::locale::_Impl"* }
%"class.std::locale::_Impl" = type { i32, %"class.std::locale::facet"**, i64, %"class.std::locale::facet"**, i8** }
%"class.std::locale::facet" = type <{ i32 (...)**, i32, [4 x i8] }>
%"class.std::basic_ostream" = type { i32 (...)**, %"class.std::basic_ios" }
%"class.std::basic_streambuf" = type { i32 (...)**, i8*, i8*, i8*, i8*, i8*, i8*, %"class.std::locale" }
%"class.std::ctype" = type <{ %"class.std::locale::facet.base", [4 x i8], %struct.__locale_struct*, i8, [7 x i8], i32*, i32*, i16*, i8, [256 x i8], [256 x i8], i8, [6 x i8] }>
%"class.std::locale::facet.base" = type <{ i32 (...)**, i32 }>
%struct.__locale_struct = type { [13 x %struct.__locale_data*], i16*, i32*, i32*, [13 x i8*] }
%struct.__locale_data = type opaque
%"class.std::num_put" = type { %"class.std::locale::facet.base", [4 x i8] }
%"class.std::num_get" = type { %"class.std::locale::facet.base", [4 x i8] }

@_ZStL8__ioinit = internal global %"class.std::ios_base::Init" zeroinitializer, align 1
@__dso_handle = external hidden global i8
@_ZSt3cin = external global %"class.std::basic_istream", align 8
@_ZSt4cout = external global %"class.std::basic_ostream", align 8
@llvm.global_ctors = appending global [1 x { i32, void ()*, i8* }] [{ i32, void ()*, i8* } { i32 65535, void ()* @_GLOBAL__sub_I_2094.cpp, i8* null }]

declare void @_ZNSt8ios_base4InitC1Ev(%"class.std::ios_base::Init"* nonnull align 1 dereferenceable(1)) unnamed_addr #0

; Function Attrs: nounwind
declare void @_ZNSt8ios_base4InitD1Ev(%"class.std::ios_base::Init"* nonnull align 1 dereferenceable(1)) unnamed_addr #1

; Function Attrs: nofree nounwind
declare i32 @__cxa_atexit(void (i8*)*, i8*, i8*) local_unnamed_addr #2

; Function Attrs: mustprogress norecurse sspstrong uwtable
define dso_local i32 @main() local_unnamed_addr #3 {
  %1 = alloca i8, align 1
  %2 = alloca i32, align 4
  %3 = alloca [100 x i32], align 16
  %4 = alloca [100 x i32], align 16
  %5 = bitcast i32* %2 to i8*
  call void @llvm.lifetime.start.p0i8(i64 4, i8* nonnull %5) #6
  %6 = bitcast [100 x i32]* %3 to i8*
  call void @llvm.lifetime.start.p0i8(i64 400, i8* nonnull %6) #6
  %7 = bitcast [100 x i32]* %4 to i8*
  call void @llvm.lifetime.start.p0i8(i64 400, i8* nonnull %7) #6
  %8 = call nonnull align 8 dereferenceable(16) %"class.std::basic_istream"* @_ZNSirsERi(%"class.std::basic_istream"* nonnull align 8 dereferenceable(16) @_ZSt3cin, i32* nonnull align 4 dereferenceable(4) %2)
  %9 = load i32, i32* %2, align 4, !tbaa !5
  %10 = icmp sgt i32 %9, 0
  br i1 %10, label %118, label %129

11:                                               ; preds = %118
  %12 = icmp sgt i32 %123, 0
  br i1 %12, label %13, label %129

13:                                               ; preds = %11
  %14 = zext i32 %123 to i64
  %15 = icmp ult i32 %123, 8
  br i1 %15, label %98, label %16

16:                                               ; preds = %13
  %17 = add nsw i64 %14, -1
  %18 = add i32 %123, -1
  %19 = trunc i64 %17 to i32
  %20 = sub i32 %18, %19
  %21 = icmp sgt i32 %20, %18
  %22 = icmp ugt i64 %17, 4294967295
  %23 = or i1 %21, %22
  br i1 %23, label %98, label %24

24:                                               ; preds = %16
  %25 = and i64 %14, 4294967288
  %26 = trunc i64 %25 to i32
  %27 = add nsw i64 %25, -8
  %28 = lshr exact i64 %27, 3
  %29 = add nuw nsw i64 %28, 1
  %30 = and i64 %29, 1
  %31 = icmp eq i64 %27, 0
  br i1 %31, label %75, label %32

32:                                               ; preds = %24
  %33 = and i64 %29, 4611686018427387902
  br label %34

34:                                               ; preds = %34, %32
  %35 = phi i64 [ 0, %32 ], [ %72, %34 ]
  %36 = phi i64 [ %33, %32 ], [ %73, %34 ]
  %37 = trunc i64 %35 to i32
  %38 = xor i32 %37, -1
  %39 = add i32 %123, %38
  %40 = sext i32 %39 to i64
  %41 = getelementptr inbounds [100 x i32], [100 x i32]* %3, i64 0, i64 %40
  %42 = getelementptr inbounds i32, i32* %41, i64 -3
  %43 = bitcast i32* %42 to <4 x i32>*
  %44 = load <4 x i32>, <4 x i32>* %43, align 4, !tbaa !5
  %45 = shufflevector <4 x i32> %44, <4 x i32> poison, <4 x i32> <i32 3, i32 2, i32 1, i32 0>
  %46 = getelementptr inbounds i32, i32* %41, i64 -7
  %47 = bitcast i32* %46 to <4 x i32>*
  %48 = load <4 x i32>, <4 x i32>* %47, align 4, !tbaa !5
  %49 = shufflevector <4 x i32> %48, <4 x i32> poison, <4 x i32> <i32 3, i32 2, i32 1, i32 0>
  %50 = getelementptr inbounds [100 x i32], [100 x i32]* %4, i64 0, i64 %35
  %51 = bitcast i32* %50 to <4 x i32>*
  store <4 x i32> %45, <4 x i32>* %51, align 16, !tbaa !5
  %52 = getelementptr inbounds i32, i32* %50, i64 4
  %53 = bitcast i32* %52 to <4 x i32>*
  store <4 x i32> %49, <4 x i32>* %53, align 16, !tbaa !5
  %54 = or i64 %35, 8
  %55 = trunc i64 %54 to i32
  %56 = xor i32 %55, -1
  %57 = add i32 %123, %56
  %58 = sext i32 %57 to i64
  %59 = getelementptr inbounds [100 x i32], [100 x i32]* %3, i64 0, i64 %58
  %60 = getelementptr inbounds i32, i32* %59, i64 -3
  %61 = bitcast i32* %60 to <4 x i32>*
  %62 = load <4 x i32>, <4 x i32>* %61, align 4, !tbaa !5
  %63 = shufflevector <4 x i32> %62, <4 x i32> poison, <4 x i32> <i32 3, i32 2, i32 1, i32 0>
  %64 = getelementptr inbounds i32, i32* %59, i64 -7
  %65 = bitcast i32* %64 to <4 x i32>*
  %66 = load <4 x i32>, <4 x i32>* %65, align 4, !tbaa !5
  %67 = shufflevector <4 x i32> %66, <4 x i32> poison, <4 x i32> <i32 3, i32 2, i32 1, i32 0>
  %68 = getelementptr inbounds [100 x i32], [100 x i32]* %4, i64 0, i64 %54
  %69 = bitcast i32* %68 to <4 x i32>*
  store <4 x i32> %63, <4 x i32>* %69, align 16, !tbaa !5
  %70 = getelementptr inbounds i32, i32* %68, i64 4
  %71 = bitcast i32* %70 to <4 x i32>*
  store <4 x i32> %67, <4 x i32>* %71, align 16, !tbaa !5
  %72 = add nuw i64 %35, 16
  %73 = add i64 %36, -2
  %74 = icmp eq i64 %73, 0
  br i1 %74, label %75, label %34, !llvm.loop !9

75:                                               ; preds = %34, %24
  %76 = phi i64 [ 0, %24 ], [ %72, %34 ]
  %77 = icmp eq i64 %30, 0
  br i1 %77, label %96, label %78

78:                                               ; preds = %75
  %79 = trunc i64 %76 to i32
  %80 = xor i32 %79, -1
  %81 = add i32 %123, %80
  %82 = sext i32 %81 to i64
  %83 = getelementptr inbounds [100 x i32], [100 x i32]* %3, i64 0, i64 %82
  %84 = getelementptr inbounds i32, i32* %83, i64 -3
  %85 = bitcast i32* %84 to <4 x i32>*
  %86 = load <4 x i32>, <4 x i32>* %85, align 4, !tbaa !5
  %87 = shufflevector <4 x i32> %86, <4 x i32> poison, <4 x i32> <i32 3, i32 2, i32 1, i32 0>
  %88 = getelementptr inbounds i32, i32* %83, i64 -7
  %89 = bitcast i32* %88 to <4 x i32>*
  %90 = load <4 x i32>, <4 x i32>* %89, align 4, !tbaa !5
  %91 = shufflevector <4 x i32> %90, <4 x i32> poison, <4 x i32> <i32 3, i32 2, i32 1, i32 0>
  %92 = getelementptr inbounds [100 x i32], [100 x i32]* %4, i64 0, i64 %76
  %93 = bitcast i32* %92 to <4 x i32>*
  store <4 x i32> %87, <4 x i32>* %93, align 16, !tbaa !5
  %94 = getelementptr inbounds i32, i32* %92, i64 4
  %95 = bitcast i32* %94 to <4 x i32>*
  store <4 x i32> %91, <4 x i32>* %95, align 16, !tbaa !5
  br label %96

96:                                               ; preds = %75, %78
  %97 = icmp eq i64 %25, %14
  br i1 %97, label %126, label %98

98:                                               ; preds = %16, %13, %96
  %99 = phi i64 [ 0, %16 ], [ 0, %13 ], [ %25, %96 ]
  %100 = phi i32 [ 0, %16 ], [ 0, %13 ], [ %26, %96 ]
  %101 = xor i64 %99, -1
  %102 = and i64 %14, 1
  %103 = icmp eq i64 %102, 0
  br i1 %103, label %113, label %104

104:                                              ; preds = %98
  %105 = xor i32 %100, -1
  %106 = add i32 %123, %105
  %107 = sext i32 %106 to i64
  %108 = getelementptr inbounds [100 x i32], [100 x i32]* %3, i64 0, i64 %107
  %109 = load i32, i32* %108, align 4, !tbaa !5
  %110 = getelementptr inbounds [100 x i32], [100 x i32]* %4, i64 0, i64 %99
  store i32 %109, i32* %110, align 16, !tbaa !5
  %111 = or i64 %99, 1
  %112 = add nuw nsw i32 %100, 1
  br label %113

113:                                              ; preds = %104, %98
  %114 = phi i64 [ %99, %98 ], [ %111, %104 ]
  %115 = phi i32 [ %100, %98 ], [ %112, %104 ]
  %116 = sub nsw i64 0, %14
  %117 = icmp eq i64 %101, %116
  br i1 %117, label %126, label %134

118:                                              ; preds = %0, %118
  %119 = phi i64 [ %122, %118 ], [ 0, %0 ]
  %120 = getelementptr inbounds [100 x i32], [100 x i32]* %3, i64 0, i64 %119
  %121 = call nonnull align 8 dereferenceable(16) %"class.std::basic_istream"* @_ZNSirsERi(%"class.std::basic_istream"* nonnull align 8 dereferenceable(16) @_ZSt3cin, i32* nonnull align 4 dereferenceable(4) %120)
  %122 = add nuw nsw i64 %119, 1
  %123 = load i32, i32* %2, align 4, !tbaa !5
  %124 = sext i32 %123 to i64
  %125 = icmp slt i64 %122, %124
  br i1 %125, label %118, label %11, !llvm.loop !12

126:                                              ; preds = %113, %134, %96
  %127 = getelementptr inbounds [100 x i32], [100 x i32]* %4, i64 0, i64 0
  %128 = load i32, i32* %127, align 16, !tbaa !5
  br label %129

129:                                              ; preds = %0, %126, %11
  %130 = phi i32 [ %128, %126 ], [ undef, %11 ], [ undef, %0 ]
  %131 = call nonnull align 8 dereferenceable(8) %"class.std::basic_ostream"* @_ZNSolsEi(%"class.std::basic_ostream"* nonnull align 8 dereferenceable(8) @_ZSt4cout, i32 %130)
  %132 = load i32, i32* %2, align 4, !tbaa !5
  %133 = icmp sgt i32 %132, 1
  br i1 %133, label %154, label %153

134:                                              ; preds = %113, %134
  %135 = phi i64 [ %150, %134 ], [ %114, %113 ]
  %136 = phi i32 [ %151, %134 ], [ %115, %113 ]
  %137 = xor i32 %136, -1
  %138 = add i32 %123, %137
  %139 = sext i32 %138 to i64
  %140 = getelementptr inbounds [100 x i32], [100 x i32]* %3, i64 0, i64 %139
  %141 = load i32, i32* %140, align 4, !tbaa !5
  %142 = getelementptr inbounds [100 x i32], [100 x i32]* %4, i64 0, i64 %135
  store i32 %141, i32* %142, align 4, !tbaa !5
  %143 = add nuw nsw i64 %135, 1
  %144 = sub i32 -2, %136
  %145 = add i32 %123, %144
  %146 = sext i32 %145 to i64
  %147 = getelementptr inbounds [100 x i32], [100 x i32]* %3, i64 0, i64 %146
  %148 = load i32, i32* %147, align 4, !tbaa !5
  %149 = getelementptr inbounds [100 x i32], [100 x i32]* %4, i64 0, i64 %143
  store i32 %148, i32* %149, align 4, !tbaa !5
  %150 = add nuw nsw i64 %135, 2
  %151 = add nuw nsw i32 %136, 2
  %152 = icmp eq i64 %150, %14
  br i1 %152, label %126, label %134, !llvm.loop !13

153:                                              ; preds = %154, %129
  call void @llvm.lifetime.end.p0i8(i64 400, i8* nonnull %7) #6
  call void @llvm.lifetime.end.p0i8(i64 400, i8* nonnull %6) #6
  call void @llvm.lifetime.end.p0i8(i64 4, i8* nonnull %5) #6
  ret i32 0

154:                                              ; preds = %129, %154
  %155 = phi i64 [ %160, %154 ], [ 1, %129 ]
  call void @llvm.lifetime.start.p0i8(i64 1, i8* nonnull %1)
  store i8 32, i8* %1, align 1, !tbaa !14
  %156 = call nonnull align 8 dereferenceable(8) %"class.std::basic_ostream"* @_ZSt16__ostream_insertIcSt11char_traitsIcEERSt13basic_ostreamIT_T0_ES6_PKS3_l(%"class.std::basic_ostream"* nonnull align 8 dereferenceable(8) @_ZSt4cout, i8* nonnull %1, i64 1)
  call void @llvm.lifetime.end.p0i8(i64 1, i8* nonnull %1)
  %157 = getelementptr inbounds [100 x i32], [100 x i32]* %4, i64 0, i64 %155
  %158 = load i32, i32* %157, align 4, !tbaa !5
  %159 = call nonnull align 8 dereferenceable(8) %"class.std::basic_ostream"* @_ZNSolsEi(%"class.std::basic_ostream"* nonnull align 8 dereferenceable(8) %156, i32 %158)
  %160 = add nuw nsw i64 %155, 1
  %161 = load i32, i32* %2, align 4, !tbaa !5
  %162 = sext i32 %161 to i64
  %163 = icmp slt i64 %160, %162
  br i1 %163, label %154, label %153, !llvm.loop !15
}

; Function Attrs: argmemonly mustprogress nofree nosync nounwind willreturn
declare void @llvm.lifetime.start.p0i8(i64 immarg, i8* nocapture) #4

declare nonnull align 8 dereferenceable(16) %"class.std::basic_istream"* @_ZNSirsERi(%"class.std::basic_istream"* nonnull align 8 dereferenceable(16), i32* nonnull align 4 dereferenceable(4)) local_unnamed_addr #0

; Function Attrs: argmemonly mustprogress nofree nosync nounwind willreturn
declare void @llvm.lifetime.end.p0i8(i64 immarg, i8* nocapture) #4

declare nonnull align 8 dereferenceable(8) %"class.std::basic_ostream"* @_ZNSolsEi(%"class.std::basic_ostream"* nonnull align 8 dereferenceable(8), i32) local_unnamed_addr #0

declare nonnull align 8 dereferenceable(8) %"class.std::basic_ostream"* @_ZSt16__ostream_insertIcSt11char_traitsIcEERSt13basic_ostreamIT_T0_ES6_PKS3_l(%"class.std::basic_ostream"* nonnull align 8 dereferenceable(8), i8*, i64) local_unnamed_addr #0

; Function Attrs: sspstrong uwtable
define internal void @_GLOBAL__sub_I_2094.cpp() #5 section ".text.startup" {
  tail call void @_ZNSt8ios_base4InitC1Ev(%"class.std::ios_base::Init"* nonnull align 1 dereferenceable(1) @_ZStL8__ioinit)
  %1 = tail call i32 @__cxa_atexit(void (i8*)* bitcast (void (%"class.std::ios_base::Init"*)* @_ZNSt8ios_base4InitD1Ev to void (i8*)*), i8* getelementptr inbounds (%"class.std::ios_base::Init", %"class.std::ios_base::Init"* @_ZStL8__ioinit, i64 0, i32 0), i8* nonnull @__dso_handle) #6
  ret void
}


!llvm.module.flags = !{!0, !1, !2, !3}
!llvm.ident = !{!4}

!0 = !{i32 1, !"wchar_size", i32 4}
!1 = !{i32 7, !"PIC Level", i32 2}
!2 = !{i32 7, !"PIE Level", i32 2}
!3 = !{i32 7, !"uwtable", i32 1}
!4 = !{!"clang version 13.0.0"}
!5 = !{!6, !6, i64 0}
!6 = !{!"int", !7, i64 0}
!7 = !{!"omnipotent char", !8, i64 0}
!8 = !{!"Simple C++ TBAA"}
!9 = distinct !{!9, !10, !11}
!10 = !{!"llvm.loop.mustprogress"}
!11 = !{!"llvm.loop.isvectorized", i32 1}
!12 = distinct !{!12, !10}
!13 = distinct !{!13, !10, !11}
!14 = !{!7, !7, i64 0}
!15 = distinct !{!15, !10}
